; Function Attrs: mustprogress nounwind uwtable
define dso_local void @_ZN4node5http213Http2Settings4SendEv(ptr noundef nonnull align 8 dereferenceable(144) %this) local_unnamed_addr #4 align 2 {
entry:
  %session_ = getelementptr inbounds i8, ptr %this, i64 56
  %0 = load ptr, ptr %session_, align 8, !nonnull !13, !noundef !13
  %self.i.i = getelementptr inbounds i8, ptr %0, i64 16
  %1 = load ptr, ptr %self.i.i, align 8
  %cmp.i.i1 = icmp eq ptr %1, null
  br i1 %cmp.i.i1, label %_ZN4node5http210Http2ScopeC2EPNS0_12Http2SessionE.exit, label %_ZNK4node17BaseObjectPtrImplINS_5http212Http2SessionELb0EE12pointer_dataEv.exit.i.i

_ZNK4node17BaseObjectPtrImplINS_5http212Http2SessionELb0EE12pointer_dataEv.exit.i.i: ; preds = %entry
  %call3.i.i.i = tail call noundef ptr @_ZN4node10BaseObject12pointer_dataEv(ptr noundef nonnull align 8 dereferenceable(32) %1) #29
  %cmp2.not.i.i = icmp eq ptr %call3.i.i.i, null
  br i1 %cmp2.not.i.i, label %do.body6.i.i, label %if.end.i

do.body6.i.i:                                     ; preds = %_ZNK4node17BaseObjectPtrImplINS_5http212Http2SessionELb0EE12pointer_dataEv.exit.i.i
  tail call void @_ZN4node6AssertERKNS_13AssertionInfoE(ptr noundef nonnull align 8 dereferenceable(24) @_ZZN4node17BaseObjectPtrImplINS_5http212Http2SessionELb0EEC1EPS2_E4args_0) #29
  tail call void @abort() #30
  unreachable

if.end.i:                                         ; preds = %_ZNK4node17BaseObjectPtrImplINS_5http212Http2SessionELb0EE12pointer_dataEv.exit.i.i
  tail call void @_ZN4node10BaseObject17increase_refcountEv(ptr noundef nonnull align 8 dereferenceable(32) %1) #29
  %flags_.i.i = getelementptr inbounds i8, ptr %1, i64 304
  %2 = load i32, ptr %flags_.i.i, align 8
  %3 = and i32 %2, 3
  %or.cond.not.i = icmp eq i32 %3, 0
  br i1 %or.cond.not.i, label %if.end11.i, label %_ZN4node17BaseObjectPtrImplINS_5http212Http2SessionELb0EE5resetEPS2_.exit.i

_ZN4node17BaseObjectPtrImplINS_5http212Http2SessionELb0EE5resetEPS2_.exit.i: ; preds = %if.end.i
  tail call void @_ZN4node10BaseObject17decrease_refcountEv(ptr noundef nonnull align 8 dereferenceable(32) %1) #29
  br label %_ZN4node5http210Http2ScopeC2EPNS0_12Http2SessionE.exit

if.end11.i:                                       ; preds = %if.end.i
  %and.sink.i.i = or disjoint i32 %2, 1
  store i32 %and.sink.i.i, ptr %flags_.i.i, align 8
  br label %_ZN4node5http210Http2ScopeC2EPNS0_12Http2SessionE.exit

_ZN4node5http210Http2ScopeC2EPNS0_12Http2SessionE.exit: ; preds = %entry, %_ZN4node17BaseObjectPtrImplINS_5http212Http2SessionELb0EE5resetEPS2_.exit.i, %if.end11.i
  %h2scope.sroa.0.0.ph = phi ptr [ null, %_ZN4node17BaseObjectPtrImplINS_5http212Http2SessionELb0EE5resetEPS2_.exit.i ], [ %1, %if.end11.i ], [ null, %entry ]
  %.pr = load ptr, ptr %session_, align 8, !nonnull !13, !noundef !13
  %self.i.i.i = getelementptr inbounds i8, ptr %.pr, i64 16
  %4 = load ptr, ptr %self.i.i.i, align 8
  %session_.i = getelementptr inbounds i8, ptr %4, i64 168
  %5 = load ptr, ptr %session_.i, align 8
  %entries_ = getelementptr inbounds i8, ptr %this, i64 88
  %count_ = getelementptr inbounds i8, ptr %this, i64 80
  %6 = load i64, ptr %count_, align 8
  %call5 = tail call i32 @nghttp2_submit_settings(ptr noundef %5, i8 noundef zeroext 0, ptr noundef nonnull %entries_, i64 noundef %6) #29
  %cmp.not = icmp eq i32 %call5, 0
  br i1 %cmp.not, label %do.end10, label %do.body8

do.body8:                                         ; preds = %_ZN4node5http210Http2ScopeC2EPNS0_12Http2SessionE.exit
  tail call void @_ZN4node6AssertERKNS_13AssertionInfoE(ptr noundef nonnull align 8 dereferenceable(24) @_ZZN4node5http213Http2Settings4SendEvE4args) #29
  tail call void @abort() #30
  unreachable

do.end10:                                         ; preds = %_ZN4node5http210Http2ScopeC2EPNS0_12Http2SessionE.exit
  %cmp.i.not.i = icmp eq ptr %h2scope.sroa.0.0.ph, null
  br i1 %cmp.i.not.i, label %_ZN4node5http210Http2ScopeD2Ev.exit, label %if.end.i2

if.end.i2:                                        ; preds = %do.end10
  %flags_.i.i3 = getelementptr inbounds i8, ptr %h2scope.sroa.0.0.ph, i64 304
  %7 = load i32, ptr %flags_.i.i3, align 8
  %and.i.i = and i32 %7, -2
  store i32 %and.i.i, ptr %flags_.i.i3, align 8
  %and.i2.i = and i32 %7, 2
  %tobool.i.not.i = icmp eq i32 %and.i2.i, 0
  br i1 %tobool.i.not.i, label %cleanup.i, label %if.then.i.i

cleanup.i:                                        ; preds = %if.end.i2
  tail call void @_ZN4node5http212Http2Session18MaybeScheduleWriteEv(ptr noundef nonnull align 8 dereferenceable(640) %h2scope.sroa.0.0.ph)
  br label %if.then.i.i

if.then.i.i:                                      ; preds = %cleanup.i, %if.end.i2
  tail call void @_ZN4node10BaseObject17decrease_refcountEv(ptr noundef nonnull align 8 dereferenceable(32) %h2scope.sroa.0.0.ph) #29
  br label %_ZN4node5http210Http2ScopeD2Ev.exit

_ZN4node5http210Http2ScopeD2Ev.exit:              ; preds = %do.end10, %if.then.i.i
  ret void
}